; Function Attrs: mustprogress uwtable
define internal fastcc void @_ZN6AssimpL9ReadColorEPNS_12StreamReaderILb0ELb0EEE(ptr dead_on_unwind noalias nonnull writable writeonly align 4 captures(none) %0, ptr noundef nonnull captures(none) %1) unnamed_addr #0 personality ptr @__gxx_personality_v0 {
  %3 = getelementptr inbounds nuw i8, ptr %1, i64 24
  %4 = load ptr, ptr %3, align 8
  %5 = getelementptr inbounds nuw i8, ptr %4, i64 4
  %6 = getelementptr inbounds nuw i8, ptr %1, i64 40
  %7 = load ptr, ptr %6, align 8
  %8 = icmp ugt ptr %5, %7
  br i1 %8, label %9, label %_ZN6Assimp12StreamReaderILb0ELb0EE5GetF4Ev.exit

9:                                                ; preds = %2
  %10 = tail call ptr @__cxa_allocate_exception(i64 16) #25
  invoke void @_ZN17DeadlyImportErrorC2EPKc(ptr noundef nonnull align 8 dereferenceable(16) %10, ptr noundef nonnull @.str.13)
          to label %11 unwind label %12

11:                                               ; preds = %9
  tail call void @__cxa_throw(ptr nonnull %10, ptr nonnull @_ZTI17DeadlyImportError, ptr nonnull @_ZNSt13runtime_errorD2Ev) #27
  unreachable

common.resume:                                    ; preds = %36, %28, %20, %12
  %.sink = phi ptr [ %34, %36 ], [ %26, %28 ], [ %18, %20 ], [ %10, %12 ]
  %common.resume.op = phi { ptr, i32 } [ %37, %36 ], [ %29, %28 ], [ %21, %20 ], [ %13, %12 ]
  tail call void @__cxa_free_exception(ptr nonnull %.sink) #25
  resume { ptr, i32 } %common.resume.op

12:                                               ; preds = %9
  %13 = landingpad { ptr, i32 }
          cleanup
  br label %common.resume

_ZN6Assimp12StreamReaderILb0ELb0EE5GetF4Ev.exit:  ; preds = %2
  %14 = load float, ptr %4, align 1
  store ptr %5, ptr %3, align 8
  %15 = getelementptr inbounds nuw i8, ptr %4, i64 8
  %16 = icmp ugt ptr %15, %7
  br i1 %16, label %17, label %_ZN6Assimp12StreamReaderILb0ELb0EE5GetF4Ev.exit7

17:                                               ; preds = %_ZN6Assimp12StreamReaderILb0ELb0EE5GetF4Ev.exit
  %18 = tail call ptr @__cxa_allocate_exception(i64 16) #25
  invoke void @_ZN17DeadlyImportErrorC2EPKc(ptr noundef nonnull align 8 dereferenceable(16) %18, ptr noundef nonnull @.str.13)
          to label %19 unwind label %20

19:                                               ; preds = %17
  tail call void @__cxa_throw(ptr nonnull %18, ptr nonnull @_ZTI17DeadlyImportError, ptr nonnull @_ZNSt13runtime_errorD2Ev) #27
  unreachable

20:                                               ; preds = %17
  %21 = landingpad { ptr, i32 }
          cleanup
  br label %common.resume

_ZN6Assimp12StreamReaderILb0ELb0EE5GetF4Ev.exit7: ; preds = %_ZN6Assimp12StreamReaderILb0ELb0EE5GetF4Ev.exit
  %22 = load float, ptr %5, align 1
  store ptr %15, ptr %3, align 8
  %23 = getelementptr inbounds nuw i8, ptr %4, i64 12
  %24 = icmp ugt ptr %23, %7
  br i1 %24, label %25, label %_ZN6Assimp12StreamReaderILb0ELb0EE5GetF4Ev.exit8

25:                                               ; preds = %_ZN6Assimp12StreamReaderILb0ELb0EE5GetF4Ev.exit7
  %26 = tail call ptr @__cxa_allocate_exception(i64 16) #25
  invoke void @_ZN17DeadlyImportErrorC2EPKc(ptr noundef nonnull align 8 dereferenceable(16) %26, ptr noundef nonnull @.str.13)
          to label %27 unwind label %28

27:                                               ; preds = %25
  tail call void @__cxa_throw(ptr nonnull %26, ptr nonnull @_ZTI17DeadlyImportError, ptr nonnull @_ZNSt13runtime_errorD2Ev) #27
  unreachable

28:                                               ; preds = %25
  %29 = landingpad { ptr, i32 }
          cleanup
  br label %common.resume

_ZN6Assimp12StreamReaderILb0ELb0EE5GetF4Ev.exit8: ; preds = %_ZN6Assimp12StreamReaderILb0ELb0EE5GetF4Ev.exit7
  %30 = load float, ptr %15, align 1
  store ptr %23, ptr %3, align 8
  %31 = getelementptr inbounds nuw i8, ptr %4, i64 16
  %32 = icmp ugt ptr %31, %7
  br i1 %32, label %33, label %_ZN6Assimp12StreamReaderILb0ELb0EE5GetU4Ev.exit

33:                                               ; preds = %_ZN6Assimp12StreamReaderILb0ELb0EE5GetF4Ev.exit8
  %34 = tail call ptr @__cxa_allocate_exception(i64 16) #25
  invoke void @_ZN17DeadlyImportErrorC2EPKc(ptr noundef nonnull align 8 dereferenceable(16) %34, ptr noundef nonnull @.str.13)
          to label %35 unwind label %36

35:                                               ; preds = %33
  tail call void @__cxa_throw(ptr nonnull %34, ptr nonnull @_ZTI17DeadlyImportError, ptr nonnull @_ZNSt13runtime_errorD2Ev) #27
  unreachable

36:                                               ; preds = %33
  %37 = landingpad { ptr, i32 }
          cleanup
  br label %common.resume

_ZN6Assimp12StreamReaderILb0ELb0EE5GetU4Ev.exit:  ; preds = %_ZN6Assimp12StreamReaderILb0ELb0EE5GetF4Ev.exit8
  store ptr %31, ptr %3, align 8
  store float %14, ptr %0, align 4
  %38 = getelementptr inbounds nuw i8, ptr %0, i64 4
  store float %22, ptr %38, align 4
  %39 = getelementptr inbounds nuw i8, ptr %0, i64 8
  store float %30, ptr %39, align 4
  ret void
}